(iEstadoOperacion
EstadoOperacion
p0
(dp1
S'cantDigitos'
p2
(lp3
I2
aI2
aI2
aI2
asS'valores'
p4
(lp5
(lp6
I-1
aS'9'
p7
aa(lp8
I-1
aI-1
aa(lp9
I-1
aI-1
aa(lp10
I-1
aI-1
aasS'tipo'
p11
I2
sS'cantFactores'
p12
I4
sb.